; ModuleID = '40/2763.c'
source_filename = "40/2763.c"
target datalayout = "e-m:e-p270:32:32-p271:32:32-p272:64:64-i64:64-f80:128-n8:16:32:64-S128"
target triple = "x86_64-pc-linux-gnu"

@.str = private unnamed_addr constant [4 x i8] c"%lf\00", align 1
@.str.1 = private unnamed_addr constant [15 x i8] c"Invalid input\0A\00", align 1
@.str.2 = private unnamed_addr constant [6 x i8] c"%.4lf\00", align 1

; Function Attrs: noinline nounwind uwtable
define dso_local i32 @main() #0 {
  %1 = alloca i32, align 4
  %2 = alloca double, align 8
  %3 = alloca double, align 8
  %4 = alloca double, align 8
  %5 = alloca double, align 8
  %6 = alloca double, align 8
  %7 = alloca double, align 8
  %8 = alloca double, align 8
  %9 = alloca double, align 8
  %10 = alloca double, align 8
  store i32 0, i32* %1, align 4
  %11 = call i32 (i8*, ...) @__isoc99_scanf(i8* getelementptr inbounds ([4 x i8], [4 x i8]* @.str, i64 0, i64 0), double* %2)
  %12 = call i32 (i8*, ...) @__isoc99_scanf(i8* getelementptr inbounds ([4 x i8], [4 x i8]* @.str, i64 0, i64 0), double* %3)
  %13 = call i32 (i8*, ...) @__isoc99_scanf(i8* getelementptr inbounds ([4 x i8], [4 x i8]* @.str, i64 0, i64 0), double* %4)
  %14 = call i32 (i8*, ...) @__isoc99_scanf(i8* getelementptr inbounds ([4 x i8], [4 x i8]* @.str, i64 0, i64 0), double* %5)
  %15 = call i32 (i8*, ...) @__isoc99_scanf(i8* getelementptr inbounds ([4 x i8], [4 x i8]* @.str, i64 0, i64 0), double* %6)
  %16 = load double, double* %2, align 8
  %17 = load double, double* %3, align 8
  %18 = fadd double %16, %17
  %19 = load double, double* %4, align 8
  %20 = fadd double %18, %19
  %21 = load double, double* %5, align 8
  %22 = fadd double %20, %21
  %23 = fdiv double %22, 2.000000e+00
  store double %23, double* %8, align 8
  %24 = load double, double* %6, align 8
  %25 = fmul double %24, 3.140000e+00
  %26 = fdiv double %25, 3.600000e+02
  store double %26, double* %9, align 8
  %27 = load double, double* %8, align 8
  %28 = load double, double* %2, align 8
  %29 = fsub double %27, %28
  %30 = load double, double* %8, align 8
  %31 = load double, double* %3, align 8
  %32 = fsub double %30, %31
  %33 = fmul double %29, %32
  %34 = load double, double* %8, align 8
  %35 = load double, double* %4, align 8
  %36 = fsub double %34, %35
  %37 = fmul double %33, %36
  %38 = load double, double* %8, align 8
  %39 = load double, double* %5, align 8
  %40 = fsub double %38, %39
  %41 = fmul double %37, %40
  %42 = load double, double* %2, align 8
  %43 = load double, double* %3, align 8
  %44 = fmul double %42, %43
  %45 = load double, double* %4, align 8
  %46 = fmul double %44, %45
  %47 = load double, double* %5, align 8
  %48 = fmul double %46, %47
  %49 = load double, double* %9, align 8
  %50 = call double @cos(double %49) #3
  %51 = fmul double %48, %50
  %52 = load double, double* %9, align 8
  %53 = call double @cos(double %52) #3
  %54 = fmul double %51, %53
  %55 = fsub double %41, %54
  store double %55, double* %7, align 8
  %56 = load double, double* %7, align 8
  %57 = fcmp olt double %56, 0.000000e+00
  br i1 %57, label %58, label %60

58:                                               ; preds = %0
  %59 = call i32 (i8*, ...) @printf(i8* getelementptr inbounds ([15 x i8], [15 x i8]* @.str.1, i64 0, i64 0))
  br label %69

60:                                               ; preds = %0
  %61 = load double, double* %2, align 8
  %62 = load double, double* %3, align 8
  %63 = load double, double* %4, align 8
  %64 = load double, double* %5, align 8
  %65 = load double, double* %6, align 8
  %66 = call double @squart(double %61, double %62, double %63, double %64, double %65)
  store double %66, double* %10, align 8
  %67 = load double, double* %10, align 8
  %68 = call i32 (i8*, ...) @printf(i8* getelementptr inbounds ([6 x i8], [6 x i8]* @.str.2, i64 0, i64 0), double %67)
  br label %69

69:                                               ; preds = %60, %58
  ret i32 0
}

declare dso_local i32 @__isoc99_scanf(i8*, ...) #1

; Function Attrs: nounwind
declare dso_local double @cos(double) #2

declare dso_local i32 @printf(i8*, ...) #1

; Function Attrs: noinline nounwind uwtable
define dso_local double @squart(double %0, double %1, double %2, double %3, double %4) #0 {
  %6 = alloca double, align 8
  %7 = alloca double, align 8
  %8 = alloca double, align 8
  %9 = alloca double, align 8
  %10 = alloca double, align 8
  %11 = alloca double, align 8
  %12 = alloca double, align 8
  %13 = alloca double, align 8
  store double %0, double* %6, align 8
  store double %1, double* %7, align 8
  store double %2, double* %8, align 8
  store double %3, double* %9, align 8
  store double %4, double* %10, align 8
  %14 = load double, double* %10, align 8
  %15 = fmul double %14, 3.140000e+00
  %16 = fdiv double %15, 3.600000e+02
  store double %16, double* %13, align 8
  %17 = load double, double* %6, align 8
  %18 = load double, double* %7, align 8
  %19 = fadd double %17, %18
  %20 = load double, double* %8, align 8
  %21 = fadd double %19, %20
  %22 = load double, double* %9, align 8
  %23 = fadd double %21, %22
  %24 = fdiv double %23, 2.000000e+00
  store double %24, double* %12, align 8
  %25 = load double, double* %12, align 8
  %26 = load double, double* %6, align 8
  %27 = fsub double %25, %26
  %28 = load double, double* %12, align 8
  %29 = load double, double* %7, align 8
  %30 = fsub double %28, %29
  %31 = fmul double %27, %30
  %32 = load double, double* %12, align 8
  %33 = load double, double* %8, align 8
  %34 = fsub double %32, %33
  %35 = fmul double %31, %34
  %36 = load double, double* %12, align 8
  %37 = load double, double* %9, align 8
  %38 = fsub double %36, %37
  %39 = fmul double %35, %38
  %40 = load double, double* %6, align 8
  %41 = load double, double* %7, align 8
  %42 = fmul double %40, %41
  %43 = load double, double* %8, align 8
  %44 = fmul double %42, %43
  %45 = load double, double* %9, align 8
  %46 = fmul double %44, %45
  %47 = load double, double* %13, align 8
  %48 = call double @cos(double %47) #3
  %49 = fmul double %46, %48
  %50 = load double, double* %13, align 8
  %51 = call double @cos(double %50) #3
  %52 = fmul double %49, %51
  %53 = fsub double %39, %52
  %54 = call double @sqrt(double %53) #3
  store double %54, double* %11, align 8
  %55 = load double, double* %11, align 8
  ret double %55
}

; Function Attrs: nounwind
declare dso_local double @sqrt(double) #2


!llvm.module.flags = !{!0}
!llvm.ident = !{!1}

!0 = !{i32 1, !"wchar_size", i32 4}
!1 = !{!"clang version 10.0.0-4ubuntu1 "}
